; Function Attrs: nounwind uwtable
define range(i32 0, 2) i32 @Amap_ManFindCut(ptr readnone captures(none) %0, ptr noundef readonly captures(none) %1, i32 noundef %2, i32 noundef %3, ptr noundef captures(none) initializes((4, 8)) %4) local_unnamed_addr #3 {
  %6 = getelementptr inbounds nuw i8, ptr %4, i64 4
  store i32 0, ptr %6, align 4, !tbaa !21
  %7 = getelementptr inbounds nuw i8, ptr %1, i64 12
  %8 = load i32, ptr %7, align 4, !tbaa !26
  %9 = icmp sgt i32 %8, 0
  br i1 %9, label %.lr.ph, label %._crit_edge

.lr.ph:                                           ; preds = %5
  %10 = getelementptr inbounds nuw i8, ptr %1, i64 40
  %11 = load ptr, ptr %10, align 8, !tbaa !25
  %.phi.trans.insert.i = getelementptr inbounds nuw i8, ptr %4, i64 8
  br label %12

12:                                               ; preds = %.lr.ph, %54
  %13 = phi i32 [ %8, %.lr.ph ], [ %55, %54 ]
  %14 = phi i32 [ 0, %.lr.ph ], [ %57, %54 ]
  %.018 = phi ptr [ %11, %.lr.ph ], [ %62, %54 ]
  %.01517 = phi i32 [ 0, %.lr.ph ], [ %58, %54 ]
  %15 = load i32, ptr %.018, align 4
  %16 = and i32 %15, 65535
  %.not = icmp eq i32 %16, 0
  br i1 %.not, label %23, label %17

17:                                               ; preds = %12
  %18 = lshr i32 %15, 16
  %19 = and i32 %18, 1
  %20 = xor i32 %19, %2
  %21 = shl nuw nsw i32 %16, 1
  %22 = add nsw i32 %20, %21
  br label %23

23:                                               ; preds = %12, %17
  %24 = phi i32 [ %22, %17 ], [ 0, %12 ]
  %25 = icmp eq i32 %24, %3
  br i1 %25, label %26, label %54

26:                                               ; preds = %23
  %27 = load i32, ptr %4, align 8, !tbaa !73
  %28 = icmp eq i32 %14, %27
  br i1 %28, label %29, label %.Vec_PtrGrow.exit11_crit_edge.i

.Vec_PtrGrow.exit11_crit_edge.i:                  ; preds = %26
  %.pre.i = load ptr, ptr %.phi.trans.insert.i, align 8, !tbaa !23
  br label %Vec_PtrPush.exit

29:                                               ; preds = %26
  %30 = icmp slt i32 %14, 16
  br i1 %30, label %31, label %38

31:                                               ; preds = %29
  %32 = load ptr, ptr %.phi.trans.insert.i, align 8, !tbaa !23
  %.not9.i.i = icmp eq ptr %32, null
  br i1 %.not9.i.i, label %35, label %33

33:                                               ; preds = %31
  %34 = tail call dereferenceable_or_null(128) ptr @realloc(ptr noundef nonnull %32, i64 noundef 128) #17
  br label %Vec_PtrGrow.exit.i

35:                                               ; preds = %31
  %36 = tail call noalias dereferenceable_or_null(128) ptr @malloc(i64 noundef 128) #15
  br label %Vec_PtrGrow.exit.i

Vec_PtrGrow.exit.i:                               ; preds = %35, %33
  %37 = phi ptr [ %34, %33 ], [ %36, %35 ]
  store ptr %37, ptr %.phi.trans.insert.i, align 8, !tbaa !23
  store i32 16, ptr %4, align 8, !tbaa !73
  br label %Vec_PtrPush.exit

38:                                               ; preds = %29
  %39 = shl nuw nsw i32 %14, 1
  %40 = load ptr, ptr %.phi.trans.insert.i, align 8, !tbaa !23
  %.not9.i10.i = icmp eq ptr %40, null
  %41 = zext nneg i32 %39 to i64
  %42 = shl nuw nsw i64 %41, 3
  br i1 %.not9.i10.i, label %45, label %43

43:                                               ; preds = %38
  %44 = tail call ptr @realloc(ptr noundef nonnull %40, i64 noundef %42) #17
  br label %47

45:                                               ; preds = %38
  %46 = tail call noalias ptr @malloc(i64 noundef %42) #15
  br label %47

47:                                               ; preds = %45, %43
  %48 = phi ptr [ %44, %43 ], [ %46, %45 ]
  store ptr %48, ptr %.phi.trans.insert.i, align 8, !tbaa !23
  store i32 %39, ptr %4, align 8, !tbaa !73
  br label %Vec_PtrPush.exit

Vec_PtrPush.exit:                                 ; preds = %.Vec_PtrGrow.exit11_crit_edge.i, %Vec_PtrGrow.exit.i, %47
  %49 = phi ptr [ %.pre.i, %.Vec_PtrGrow.exit11_crit_edge.i ], [ %48, %47 ], [ %37, %Vec_PtrGrow.exit.i ]
  %50 = load i32, ptr %6, align 4, !tbaa !21
  %51 = add nsw i32 %50, 1
  store i32 %51, ptr %6, align 4, !tbaa !21
  %52 = sext i32 %50 to i64
  %53 = getelementptr inbounds ptr, ptr %49, i64 %52
  store ptr %.018, ptr %53, align 8, !tbaa !24
  %.pre = load i32, ptr %.018, align 4
  %.pre19 = load i32, ptr %7, align 4, !tbaa !26
  br label %54

54:                                               ; preds = %23, %Vec_PtrPush.exit
  %55 = phi i32 [ %13, %23 ], [ %.pre19, %Vec_PtrPush.exit ]
  %56 = phi i32 [ %15, %23 ], [ %.pre, %Vec_PtrPush.exit ]
  %57 = phi i32 [ %14, %23 ], [ %51, %Vec_PtrPush.exit ]
  %58 = add nuw nsw i32 %.01517, 1
  %59 = lshr i32 %56, 17
  %60 = zext nneg i32 %59 to i64
  %61 = getelementptr inbounds nuw i32, ptr %.018, i64 %60
  %62 = getelementptr inbounds nuw i8, ptr %61, i64 4
  %63 = icmp slt i32 %58, %55
  br i1 %63, label %12, label %._crit_edge.loopexit, !llvm.loop !74

._crit_edge.loopexit:                             ; preds = %54
  %64 = icmp eq i32 %57, 0
  %65 = zext i1 %64 to i32
  br label %._crit_edge

._crit_edge:                                      ; preds = %._crit_edge.loopexit, %5
  %.val = phi i32 [ %65, %._crit_edge.loopexit ], [ 1, %5 ]
  ret i32 %.val
}